; Function Attrs: mustprogress nounwind uwtable
define hidden void @_ZN14MacroAssembler11repne_scanqE8RegisterS0_S0_S0_P5LabelS2_(ptr noundef nonnull align 8 dereferenceable(40) %0, i32 %1, i32 %2, i32 %3, i32 %4, ptr noundef %5, ptr noundef %6) local_unnamed_addr #0 align 2 {
  %8 = alloca %class.Label, align 8
  %9 = alloca %class.Label, align 8
  %10 = alloca %class.Address, align 8
  store i32 -1, ptr %8, align 8
  %11 = getelementptr inbounds i8, ptr %8, i64 20
  store i32 0, ptr %11, align 4
  %12 = getelementptr inbounds i8, ptr %8, i64 24
  store ptr null, ptr %12, align 8
  %13 = getelementptr inbounds i8, ptr %8, i64 32
  store i8 0, ptr %13, align 8
  store i32 -1, ptr %9, align 8
  %14 = getelementptr inbounds i8, ptr %9, i64 20
  store i32 0, ptr %14, align 4
  %15 = getelementptr inbounds i8, ptr %9, i64 24
  store ptr null, ptr %15, align 8
  %16 = getelementptr inbounds i8, ptr %9, i64 32
  store i8 0, ptr %16, align 8
  %17 = icmp eq ptr %5, null
  %spec.select = select i1 %17, ptr %9, ptr %5
  %18 = icmp eq ptr %6, null
  call void @_ZN17AbstractAssembler4bindER5Label(ptr noundef nonnull align 8 dereferenceable(24) %0, ptr noundef nonnull align 8 dereferenceable(33) %8) #18
  store i32 %1, ptr %10, align 8
  %19 = getelementptr inbounds i8, ptr %10, i64 4
  store i32 %3, ptr %19, align 4
  %20 = getelementptr inbounds i8, ptr %10, i64 8
  store i32 -1, ptr %20, align 8
  %21 = getelementptr inbounds i8, ptr %10, i64 12
  store i32 3, ptr %21, align 4
  %22 = getelementptr inbounds i8, ptr %10, i64 16
  store i32 0, ptr %22, align 8
  %23 = getelementptr inbounds i8, ptr %10, i64 20
  store i8 0, ptr %23, align 4
  %24 = getelementptr inbounds i8, ptr %10, i64 24
  store ptr getelementptr inbounds inrange(-16, 72) (i8, ptr @_ZTV10Relocation, i64 16), ptr %24, align 8
  %25 = getelementptr inbounds i8, ptr %10, i64 32
  store ptr null, ptr %25, align 8
  %26 = getelementptr inbounds i8, ptr %10, i64 40
  store i32 0, ptr %26, align 8
  call void @_ZN9Assembler4cmpqE8Register7Address(ptr noundef nonnull align 8 dereferenceable(40) %0, i32 %2, ptr noundef nonnull %10) #18
  call void @_ZN9Assembler3jccENS_9ConditionER5Labelb(ptr noundef nonnull align 8 dereferenceable(40) %0, i32 noundef 4, ptr noundef nonnull align 8 dereferenceable(33) %spec.select, i1 noundef zeroext true) #18
  call void @_ZN9Assembler4addlE8Registeri(ptr noundef nonnull align 8 dereferenceable(40) %0, i32 %3, i32 noundef 1) #18
  call void @_ZN9Assembler4cmplE8RegisterS0_(ptr noundef nonnull align 8 dereferenceable(40) %0, i32 %3, i32 %4) #18
  call void @_ZN9Assembler3jccENS_9ConditionER5Labelb(ptr noundef nonnull align 8 dereferenceable(40) %0, i32 noundef 12, ptr noundef nonnull align 8 dereferenceable(33) %8, i1 noundef zeroext true) #18
  %.not22 = icmp eq ptr %9, %6
  %.not = or i1 %18, %.not22
  br i1 %.not, label %28, label %27

27:                                               ; preds = %7
  call void @_ZN9Assembler3jmpER5Labelb(ptr noundef nonnull align 8 dereferenceable(40) %0, ptr noundef nonnull align 8 dereferenceable(33) %6, i1 noundef zeroext true) #18
  br label %28

28:                                               ; preds = %27, %7
  call void @_ZN17AbstractAssembler4bindER5Label(ptr noundef nonnull align 8 dereferenceable(24) %0, ptr noundef nonnull align 8 dereferenceable(33) %9) #18
  ret void
}